; ModuleID = '62/2713.c'
source_filename = "62/2713.c"
target datalayout = "e-m:e-p270:32:32-p271:32:32-p272:64:64-i64:64-f80:128-n8:16:32:64-S128"
target triple = "x86_64-pc-linux-gnu"

@.str = private unnamed_addr constant [3 x i8] c"%s\00", align 1

; Function Attrs: noinline nounwind uwtable
define dso_local i32 @main() #0 {
  %1 = alloca i32, align 4
  %2 = alloca i32, align 4
  %3 = alloca i32, align 4
  %4 = alloca i32, align 4
  %5 = alloca i32, align 4
  %6 = alloca [1000 x i8], align 16
  %7 = alloca [1000 x i8], align 16
  store i32 0, i32* %1, align 4
  %8 = bitcast [1000 x i8]* %7 to i8*
  call void @llvm.memset.p0i8.i64(i8* align 16 %8, i8 0, i64 1000, i1 false)
  %9 = bitcast i8* %8 to [1000 x i8]*
  %10 = getelementptr inbounds [1000 x i8], [1000 x i8]* %9, i32 0, i32 0
  store i8 48, i8* %10, align 16
  %11 = getelementptr inbounds [1000 x i8], [1000 x i8]* %6, i64 0, i64 0
  %12 = call i32 (i8*, ...) bitcast (i32 (...)* @gets to i32 (i8*, ...)*)(i8* %11)
  %13 = getelementptr inbounds [1000 x i8], [1000 x i8]* %6, i64 0, i64 0
  %14 = call i64 @strlen(i8* %13) #4
  %15 = trunc i64 %14 to i32
  store i32 %15, i32* %4, align 4
  store i32 1, i32* %3, align 4
  %16 = getelementptr inbounds [1000 x i8], [1000 x i8]* %6, i64 0, i64 0
  %17 = load i8, i8* %16, align 16
  %18 = getelementptr inbounds [1000 x i8], [1000 x i8]* %7, i64 0, i64 0
  store i8 %17, i8* %18, align 16
  store i32 1, i32* %2, align 4
  br label %19

19:                                               ; preds = %56, %0
  %20 = load i32, i32* %2, align 4
  %21 = load i32, i32* %4, align 4
  %22 = icmp sle i32 %20, %21
  br i1 %22, label %23, label %59

23:                                               ; preds = %19
  %24 = load i32, i32* %2, align 4
  %25 = sext i32 %24 to i64
  %26 = getelementptr inbounds [1000 x i8], [1000 x i8]* %6, i64 0, i64 %25
  %27 = load i8, i8* %26, align 1
  %28 = sext i8 %27 to i32
  %29 = icmp ne i32 %28, 32
  br i1 %29, label %45, label %30

30:                                               ; preds = %23
  %31 = load i32, i32* %2, align 4
  %32 = sext i32 %31 to i64
  %33 = getelementptr inbounds [1000 x i8], [1000 x i8]* %6, i64 0, i64 %32
  %34 = load i8, i8* %33, align 1
  %35 = sext i8 %34 to i32
  %36 = icmp eq i32 %35, 32
  br i1 %36, label %37, label %55

37:                                               ; preds = %30
  %38 = load i32, i32* %2, align 4
  %39 = sub nsw i32 %38, 1
  %40 = sext i32 %39 to i64
  %41 = getelementptr inbounds [1000 x i8], [1000 x i8]* %6, i64 0, i64 %40
  %42 = load i8, i8* %41, align 1
  %43 = sext i8 %42 to i32
  %44 = icmp ne i32 %43, 32
  br i1 %44, label %45, label %55

45:                                               ; preds = %37, %23
  %46 = load i32, i32* %2, align 4
  %47 = sext i32 %46 to i64
  %48 = getelementptr inbounds [1000 x i8], [1000 x i8]* %6, i64 0, i64 %47
  %49 = load i8, i8* %48, align 1
  %50 = load i32, i32* %3, align 4
  %51 = sext i32 %50 to i64
  %52 = getelementptr inbounds [1000 x i8], [1000 x i8]* %7, i64 0, i64 %51
  store i8 %49, i8* %52, align 1
  %53 = load i32, i32* %3, align 4
  %54 = add nsw i32 %53, 1
  store i32 %54, i32* %3, align 4
  br label %55

55:                                               ; preds = %45, %37, %30
  br label %56

56:                                               ; preds = %55
  %57 = load i32, i32* %2, align 4
  %58 = add nsw i32 %57, 1
  store i32 %58, i32* %2, align 4
  br label %19

59:                                               ; preds = %19
  %60 = getelementptr inbounds [1000 x i8], [1000 x i8]* %7, i64 0, i64 0
  %61 = call i32 (i8*, ...) @printf(i8* getelementptr inbounds ([3 x i8], [3 x i8]* @.str, i64 0, i64 0), i8* %60)
  ret i32 0
}

; Function Attrs: argmemonly nounwind willreturn
declare void @llvm.memset.p0i8.i64(i8* nocapture writeonly, i8, i64, i1 immarg) #1

declare dso_local i32 @gets(...) #2

; Function Attrs: nounwind readonly
declare dso_local i64 @strlen(i8*) #3

declare dso_local i32 @printf(i8*, ...) #2


!llvm.module.flags = !{!0}
!llvm.ident = !{!1}

!0 = !{i32 1, !"wchar_size", i32 4}
!1 = !{!"clang version 10.0.0-4ubuntu1 "}
