; ModuleID = 'source-C-CXX/61/2713.c'
source_filename = "source-C-CXX/61/2713.c"
target datalayout = "e-m:e-p270:32:32-p271:32:32-p272:64:64-i64:64-f80:128-n8:16:32:64-S128"
target triple = "x86_64-pc-linux-gnu"

@.str = private unnamed_addr constant [3 x i8] c"%s\00", align 1

; Function Attrs: nounwind sspstrong uwtable
define dso_local i32 @main() local_unnamed_addr #0 {
  %1 = alloca [1000 x i8], align 16
  %2 = alloca [1000 x i8], align 16
  %3 = getelementptr inbounds [1000 x i8], [1000 x i8]* %1, i64 0, i64 0
  call void @llvm.lifetime.start.p0i8(i64 1000, i8* nonnull %3) #6
  %4 = getelementptr inbounds [1000 x i8], [1000 x i8]* %2, i64 0, i64 0
  call void @llvm.lifetime.start.p0i8(i64 1000, i8* nonnull %4) #6
  call void @llvm.memset.p0i8.i64(i8* noundef nonnull align 16 dereferenceable(1000) %4, i8 0, i64 1000, i1 false)
  store i8 48, i8* %4, align 16
  %5 = call i32 (i8*, ...) bitcast (i32 (...)* @gets to i32 (i8*, ...)*)(i8* nonnull %3) #6
  %6 = call i64 @strlen(i8* noundef nonnull %3) #7
  %7 = trunc i64 %6 to i32
  %8 = load i8, i8* %3, align 16, !tbaa !5
  store i8 %8, i8* %4, align 16, !tbaa !5
  %9 = icmp slt i32 %7, 1
  br i1 %9, label %56, label %10

10:                                               ; preds = %0
  %11 = add i64 %6, 1
  %12 = and i64 %11, 4294967295
  %13 = add nsw i64 %12, -1
  %14 = and i64 %13, 1
  %15 = icmp eq i64 %12, 2
  br i1 %15, label %40, label %16

16:                                               ; preds = %10
  %17 = and i64 %13, -2
  br label %18

18:                                               ; preds = %66, %16
  %19 = phi i64 [ 1, %16 ], [ %68, %66 ]
  %20 = phi i32 [ 1, %16 ], [ %67, %66 ]
  %21 = phi i64 [ %17, %16 ], [ %69, %66 ]
  %22 = getelementptr inbounds [1000 x i8], [1000 x i8]* %1, i64 0, i64 %19
  %23 = load i8, i8* %22, align 1, !tbaa !5
  %24 = icmp eq i8 %23, 32
  br i1 %24, label %25, label %30

25:                                               ; preds = %18
  %26 = add nsw i64 %19, -1
  %27 = getelementptr inbounds [1000 x i8], [1000 x i8]* %1, i64 0, i64 %26
  %28 = load i8, i8* %27, align 1, !tbaa !5
  %29 = icmp eq i8 %28, 32
  br i1 %29, label %34, label %30

30:                                               ; preds = %25, %18
  %31 = sext i32 %20 to i64
  %32 = getelementptr inbounds [1000 x i8], [1000 x i8]* %2, i64 0, i64 %31
  store i8 %23, i8* %32, align 1, !tbaa !5
  %33 = add nsw i32 %20, 1
  br label %34

34:                                               ; preds = %25, %30
  %35 = phi i32 [ %33, %30 ], [ %20, %25 ]
  %36 = add nuw nsw i64 %19, 1
  %37 = getelementptr inbounds [1000 x i8], [1000 x i8]* %1, i64 0, i64 %36
  %38 = load i8, i8* %37, align 1, !tbaa !5
  %39 = icmp eq i8 %38, 32
  br i1 %39, label %58, label %62

40:                                               ; preds = %66, %10
  %41 = phi i64 [ 1, %10 ], [ %68, %66 ]
  %42 = phi i32 [ 1, %10 ], [ %67, %66 ]
  %43 = icmp eq i64 %14, 0
  br i1 %43, label %56, label %44

44:                                               ; preds = %40
  %45 = getelementptr inbounds [1000 x i8], [1000 x i8]* %1, i64 0, i64 %41
  %46 = load i8, i8* %45, align 1, !tbaa !5
  %47 = icmp eq i8 %46, 32
  br i1 %47, label %48, label %53

48:                                               ; preds = %44
  %49 = add nsw i64 %41, -1
  %50 = getelementptr inbounds [1000 x i8], [1000 x i8]* %1, i64 0, i64 %49
  %51 = load i8, i8* %50, align 1, !tbaa !5
  %52 = icmp eq i8 %51, 32
  br i1 %52, label %56, label %53

53:                                               ; preds = %48, %44
  %54 = sext i32 %42 to i64
  %55 = getelementptr inbounds [1000 x i8], [1000 x i8]* %2, i64 0, i64 %54
  store i8 %46, i8* %55, align 1, !tbaa !5
  br label %56

56:                                               ; preds = %40, %48, %53, %0
  %57 = call i32 (i8*, ...) @printf(i8* nonnull dereferenceable(1) getelementptr inbounds ([3 x i8], [3 x i8]* @.str, i64 0, i64 0), i8* nonnull %4)
  call void @llvm.lifetime.end.p0i8(i64 1000, i8* nonnull %4) #6
  call void @llvm.lifetime.end.p0i8(i64 1000, i8* nonnull %3) #6
  ret i32 0

58:                                               ; preds = %34
  %59 = getelementptr inbounds [1000 x i8], [1000 x i8]* %1, i64 0, i64 %19
  %60 = load i8, i8* %59, align 1, !tbaa !5
  %61 = icmp eq i8 %60, 32
  br i1 %61, label %66, label %62

62:                                               ; preds = %58, %34
  %63 = sext i32 %35 to i64
  %64 = getelementptr inbounds [1000 x i8], [1000 x i8]* %2, i64 0, i64 %63
  store i8 %38, i8* %64, align 1, !tbaa !5
  %65 = add nsw i32 %35, 1
  br label %66

66:                                               ; preds = %62, %58
  %67 = phi i32 [ %65, %62 ], [ %35, %58 ]
  %68 = add nuw nsw i64 %19, 2
  %69 = add i64 %21, -2
  %70 = icmp eq i64 %69, 0
  br i1 %70, label %40, label %18, !llvm.loop !8
}

; Function Attrs: argmemonly mustprogress nofree nosync nounwind willreturn
declare void @llvm.lifetime.start.p0i8(i64 immarg, i8* nocapture) #1

; Function Attrs: argmemonly mustprogress nofree nounwind willreturn writeonly
declare void @llvm.memset.p0i8.i64(i8* nocapture writeonly, i8, i64, i1 immarg) #2

declare i32 @gets(...) local_unnamed_addr #3

; Function Attrs: argmemonly mustprogress nofree nounwind readonly willreturn
declare i64 @strlen(i8* nocapture) local_unnamed_addr #4

; Function Attrs: nofree nounwind
declare noundef i32 @printf(i8* nocapture noundef readonly, ...) local_unnamed_addr #5

; Function Attrs: argmemonly mustprogress nofree nosync nounwind willreturn
declare void @llvm.lifetime.end.p0i8(i64 immarg, i8* nocapture) #1


!llvm.module.flags = !{!0, !1, !2, !3}
!llvm.ident = !{!4}

!0 = !{i32 1, !"wchar_size", i32 4}
!1 = !{i32 7, !"PIC Level", i32 2}
!2 = !{i32 7, !"PIE Level", i32 2}
!3 = !{i32 7, !"uwtable", i32 1}
!4 = !{!"clang version 13.0.0"}
!5 = !{!6, !6, i64 0}
!6 = !{!"omnipotent char", !7, i64 0}
!7 = !{!"Simple C/C++ TBAA"}
!8 = distinct !{!8, !9}
!9 = !{!"llvm.loop.mustprogress"}
